; Function Attrs: mustprogress uwtable
define noundef zeroext i1 @_ZN32pxrInternal_v0_24__pxrReserved__8TsSpline23KeyFrameIsInLoopedRangeERKNS_10TsKeyFrameE(ptr nocapture noundef nonnull readonly align 8 dereferenceable(16) %0, ptr nocapture noundef nonnull readonly align 8 dereferenceable(72) %1) local_unnamed_addr #3 align 2 {
  %3 = alloca %"class.pxrInternal_v0_24__pxrReserved__::TsLoopParams", align 8
  %4 = load ptr, ptr %0, align 8, !noalias !42
  %5 = tail call noundef nonnull align 8 dereferenceable(80) ptr @_ZNK32pxrInternal_v0_24__pxrReserved__18TsSpline_KeyFrames13GetLoopParamsEv(ptr noundef nonnull align 8 dereferenceable(136) %4), !noalias !42
  call void @llvm.memcpy.p0.p0.i64(ptr noundef nonnull align 8 dereferenceable(80) %3, ptr noundef nonnull align 8 dereferenceable(80) %5, i64 80, i1 false)
  %6 = call noundef zeroext i1 @_ZNK32pxrInternal_v0_24__pxrReserved__12TsLoopParams10GetLoopingEv(ptr noundef nonnull align 8 dereferenceable(80) %3)
  br i1 %6, label %7, label %_ZNK32pxrInternal_v0_24__pxrReserved__10GfInterval8ContainsEd.exit4.thread

7:                                                ; preds = %2
  %8 = call noundef nonnull align 8 dereferenceable(32) ptr @_ZNK32pxrInternal_v0_24__pxrReserved__12TsLoopParams17GetLoopedIntervalEv(ptr noundef nonnull align 8 dereferenceable(80) %3)
  %.sroa.06.0.copyload = load double, ptr %8, align 8
  %.sroa.27.0..sroa_idx = getelementptr inbounds i8, ptr %8, i64 8
  %.sroa.27.0.copyload = load i8, ptr %.sroa.27.0..sroa_idx, align 8
  %.sroa.39.0..sroa_idx = getelementptr inbounds i8, ptr %8, i64 16
  %.sroa.39.0.copyload = load double, ptr %.sroa.39.0..sroa_idx, align 8
  %.sroa.410.0..sroa_idx = getelementptr inbounds i8, ptr %8, i64 24
  %.sroa.410.0.copyload = load i8, ptr %.sroa.410.0..sroa_idx, align 8
  %9 = call noundef nonnull align 8 dereferenceable(32) ptr @_ZNK32pxrInternal_v0_24__pxrReserved__12TsLoopParams17GetMasterIntervalEv(ptr noundef nonnull align 8 dereferenceable(80) %3)
  %.sroa.0.0.copyload = load double, ptr %9, align 8
  %.sroa.2.0..sroa_idx = getelementptr inbounds i8, ptr %9, i64 8
  %.sroa.2.0.copyload = load i8, ptr %.sroa.2.0..sroa_idx, align 8
  %.sroa.35.0..sroa_idx = getelementptr inbounds i8, ptr %9, i64 16
  %.sroa.35.0.copyload = load double, ptr %.sroa.35.0..sroa_idx, align 8
  %.sroa.4.0..sroa_idx = getelementptr inbounds i8, ptr %9, i64 24
  %.sroa.4.0.copyload = load i8, ptr %.sroa.4.0..sroa_idx, align 8
  %10 = getelementptr inbounds nuw i8, ptr %1, i64 8
  %11 = load double, ptr %10, align 8
  %12 = fcmp ogt double %11, %.sroa.0.0.copyload
  br i1 %12, label %17, label %13

13:                                               ; preds = %7
  %14 = fcmp oeq double %11, %.sroa.0.0.copyload
  br i1 %14, label %15, label %_ZNK32pxrInternal_v0_24__pxrReserved__10GfInterval8ContainsEd.exit

15:                                               ; preds = %13
  %16 = trunc i8 %.sroa.2.0.copyload to i1
  br i1 %16, label %17, label %_ZNK32pxrInternal_v0_24__pxrReserved__10GfInterval8ContainsEd.exit

17:                                               ; preds = %15, %7
  %18 = fcmp olt double %11, %.sroa.35.0.copyload
  br i1 %18, label %_ZNK32pxrInternal_v0_24__pxrReserved__10GfInterval8ContainsEd.exit, label %19

19:                                               ; preds = %17
  %20 = fcmp oeq double %11, %.sroa.35.0.copyload
  br i1 %20, label %21, label %_ZNK32pxrInternal_v0_24__pxrReserved__10GfInterval8ContainsEd.exit

21:                                               ; preds = %19
  %22 = trunc i8 %.sroa.4.0.copyload to i1
  br label %_ZNK32pxrInternal_v0_24__pxrReserved__10GfInterval8ContainsEd.exit

_ZNK32pxrInternal_v0_24__pxrReserved__10GfInterval8ContainsEd.exit: ; preds = %13, %15, %17, %19, %21
  %23 = phi i1 [ false, %15 ], [ false, %13 ], [ true, %17 ], [ false, %19 ], [ %22, %21 ]
  %24 = fcmp ogt double %11, %.sroa.06.0.copyload
  br i1 %24, label %29, label %25

25:                                               ; preds = %_ZNK32pxrInternal_v0_24__pxrReserved__10GfInterval8ContainsEd.exit
  %26 = fcmp oeq double %11, %.sroa.06.0.copyload
  br i1 %26, label %27, label %_ZNK32pxrInternal_v0_24__pxrReserved__10GfInterval8ContainsEd.exit4.thread

27:                                               ; preds = %25
  %28 = trunc i8 %.sroa.27.0.copyload to i1
  br i1 %28, label %29, label %_ZNK32pxrInternal_v0_24__pxrReserved__10GfInterval8ContainsEd.exit4.thread

29:                                               ; preds = %27, %_ZNK32pxrInternal_v0_24__pxrReserved__10GfInterval8ContainsEd.exit
  %30 = fcmp olt double %11, %.sroa.39.0.copyload
  br i1 %30, label %_ZNK32pxrInternal_v0_24__pxrReserved__10GfInterval8ContainsEd.exit4, label %31

31:                                               ; preds = %29
  %32 = fcmp oeq double %11, %.sroa.39.0.copyload
  br i1 %32, label %33, label %_ZNK32pxrInternal_v0_24__pxrReserved__10GfInterval8ContainsEd.exit4.thread

33:                                               ; preds = %31
  %34 = trunc i8 %.sroa.410.0.copyload to i1
  %35 = xor i1 %34, true
  br label %_ZNK32pxrInternal_v0_24__pxrReserved__10GfInterval8ContainsEd.exit4

_ZNK32pxrInternal_v0_24__pxrReserved__10GfInterval8ContainsEd.exit4: ; preds = %29, %33
  %.not = phi i1 [ false, %29 ], [ %35, %33 ]
  %brmerge = or i1 %23, %.not
  br i1 %brmerge, label %_ZNK32pxrInternal_v0_24__pxrReserved__10GfInterval8ContainsEd.exit4.thread, label %36

_ZNK32pxrInternal_v0_24__pxrReserved__10GfInterval8ContainsEd.exit4.thread: ; preds = %31, %25, %27, %_ZNK32pxrInternal_v0_24__pxrReserved__10GfInterval8ContainsEd.exit4, %2
  br label %36

36:                                               ; preds = %_ZNK32pxrInternal_v0_24__pxrReserved__10GfInterval8ContainsEd.exit4, %_ZNK32pxrInternal_v0_24__pxrReserved__10GfInterval8ContainsEd.exit4.thread
  %.0 = phi i1 [ false, %_ZNK32pxrInternal_v0_24__pxrReserved__10GfInterval8ContainsEd.exit4.thread ], [ true, %_ZNK32pxrInternal_v0_24__pxrReserved__10GfInterval8ContainsEd.exit4 ]
  ret i1 %.0
}